target datalayout = "e-m:e-p270:32:32-p271:32:32-p272:64:64-i64:64-i128:128-f80:128-n8:16:32:64-S128"
target triple = "x86_64-pc-linux-gnu"

%union.pthread_mutex_t = type { %struct.__pthread_mutex_s }
%struct.__pthread_mutex_s = type { i32, i32, i32, i32, i32, i16, i16, %struct.__pthread_internal_list }
%struct.__pthread_internal_list = type { ptr, ptr }
%struct.COND_TYPE = type { %union.pthread_mutex_t, %union.pthread_cond_t }
%union.pthread_cond_t = type { %struct.__pthread_cond_s }
%struct.__pthread_cond_s = type { %union.__atomic_wide_counter, %union.__atomic_wide_counter, [2 x i32], [2 x i32], i32, i32, [2 x i32] }
%union.__atomic_wide_counter = type { i64 }

; Function Attrs: nounwind uwtable
define i32 @wolfSSL_CondEnd(ptr noundef %0) #0 {
  %2 = alloca i32, align 4
  %3 = alloca ptr, align 8
  store ptr %0, ptr %3, align 8, !tbaa !47
  %4 = load ptr, ptr %3, align 8, !tbaa !47
  %5 = icmp eq ptr %4, null
  br i1 %5, label %6, label %7

6:                                                ; preds = %1
  store i32 -173, ptr %2, align 4
  br label %14

7:                                                ; preds = %1
  %8 = load ptr, ptr %3, align 8, !tbaa !47
  %9 = getelementptr inbounds nuw %struct.COND_TYPE, ptr %8, i32 0, i32 0
  %10 = call i32 @pthread_mutex_unlock(ptr noundef %9) #7
  %11 = icmp ne i32 %10, 0
  br i1 %11, label %12, label %13

12:                                               ; preds = %7
  store i32 -106, ptr %2, align 4
  br label %14

13:                                               ; preds = %7
  store i32 0, ptr %2, align 4
  br label %14

14:                                               ; preds = %13, %12, %6
  %15 = load i32, ptr %2, align 4
  ret i32 %15
}