; Function Attrs: nounwind uwtable
define range(i32 -173, 1) i32 @wolfSSL_CondEnd(ptr noundef %0) local_unnamed_addr #2 {
  %2 = icmp eq ptr %0, null
  br i1 %2, label %5, label %3

3:                                                ; preds = %1
  %4 = tail call i32 @pthread_mutex_unlock(ptr noundef nonnull %0) #16
  %.not = icmp eq i32 %4, 0
  %. = select i1 %.not, i32 0, i32 -106
  br label %5

5:                                                ; preds = %3, %1
  %.0 = phi i32 [ -173, %1 ], [ %., %3 ]
  ret i32 %.0
}